; ModuleID = '44/150.c'
source_filename = "44/150.c"
target datalayout = "e-m:e-p270:32:32-p271:32:32-p272:64:64-i64:64-f80:128-n8:16:32:64-S128"
target triple = "x86_64-pc-linux-gnu"

@.str = private unnamed_addr constant [3 x i8] c"%d\00", align 1
@.str.1 = private unnamed_addr constant [4 x i8] c"%d\0A\00", align 1

; Function Attrs: noinline nounwind uwtable
define dso_local i32 @main(i32 %0, i8** %1) #0 {
  %3 = alloca i32, align 4
  %4 = alloca i32, align 4
  %5 = alloca i8**, align 8
  %6 = alloca i32, align 4
  %7 = alloca i32, align 4
  %8 = alloca i32, align 4
  store i32 0, i32* %3, align 4
  store i32 %0, i32* %4, align 4
  store i8** %1, i8*** %5, align 8
  store i32 0, i32* %6, align 4
  br label %9

9:                                                ; preds = %18, %2
  %10 = load i32, i32* %6, align 4
  %11 = icmp slt i32 %10, 6
  br i1 %11, label %12, label %21

12:                                               ; preds = %9
  %13 = call i32 (i8*, ...) @__isoc99_scanf(i8* getelementptr inbounds ([3 x i8], [3 x i8]* @.str, i64 0, i64 0), i32* %7)
  %14 = load i32, i32* %7, align 4
  %15 = call i32 @reverse(i32 %14)
  store i32 %15, i32* %8, align 4
  %16 = load i32, i32* %8, align 4
  %17 = call i32 (i8*, ...) @printf(i8* getelementptr inbounds ([4 x i8], [4 x i8]* @.str.1, i64 0, i64 0), i32 %16)
  br label %18

18:                                               ; preds = %12
  %19 = load i32, i32* %6, align 4
  %20 = add nsw i32 %19, 1
  store i32 %20, i32* %6, align 4
  br label %9

21:                                               ; preds = %9
  ret i32 0
}

declare dso_local i32 @__isoc99_scanf(i8*, ...) #1

; Function Attrs: noinline nounwind uwtable
define dso_local i32 @reverse(i32 %0) #0 {
  %2 = alloca i32, align 4
  %3 = alloca i32, align 4
  %4 = alloca i32, align 4
  store i32 %0, i32* %2, align 4
  store i32 0, i32* %3, align 4
  %5 = load i32, i32* %2, align 4
  %6 = icmp sge i32 %5, 0
  br i1 %6, label %7, label %24

7:                                                ; preds = %1
  store i32 0, i32* %4, align 4
  br label %8

8:                                                ; preds = %20, %7
  %9 = load i32, i32* %2, align 4
  %10 = srem i32 %9, 10
  %11 = load i32, i32* %3, align 4
  %12 = mul nsw i32 10, %11
  %13 = add nsw i32 %10, %12
  store i32 %13, i32* %3, align 4
  %14 = load i32, i32* %2, align 4
  %15 = sdiv i32 %14, 10
  store i32 %15, i32* %2, align 4
  %16 = load i32, i32* %2, align 4
  %17 = icmp eq i32 %16, 0
  br i1 %17, label %18, label %19

18:                                               ; preds = %8
  br label %23

19:                                               ; preds = %8
  br label %20

20:                                               ; preds = %19
  %21 = load i32, i32* %4, align 4
  %22 = add nsw i32 %21, 1
  store i32 %22, i32* %4, align 4
  br label %8

23:                                               ; preds = %18
  br label %45

24:                                               ; preds = %1
  %25 = load i32, i32* %2, align 4
  %26 = call i32 @abs(i32 %25) #3
  store i32 %26, i32* %2, align 4
  store i32 0, i32* %4, align 4
  br label %27

27:                                               ; preds = %39, %24
  %28 = load i32, i32* %2, align 4
  %29 = srem i32 %28, 10
  %30 = load i32, i32* %3, align 4
  %31 = mul nsw i32 10, %30
  %32 = add nsw i32 %29, %31
  store i32 %32, i32* %3, align 4
  %33 = load i32, i32* %2, align 4
  %34 = sdiv i32 %33, 10
  store i32 %34, i32* %2, align 4
  %35 = load i32, i32* %2, align 4
  %36 = icmp eq i32 %35, 0
  br i1 %36, label %37, label %38

37:                                               ; preds = %27
  br label %42

38:                                               ; preds = %27
  br label %39

39:                                               ; preds = %38
  %40 = load i32, i32* %4, align 4
  %41 = add nsw i32 %40, 1
  store i32 %41, i32* %4, align 4
  br label %27

42:                                               ; preds = %37
  %43 = load i32, i32* %3, align 4
  %44 = sub nsw i32 0, %43
  store i32 %44, i32* %3, align 4
  br label %45

45:                                               ; preds = %42, %23
  %46 = load i32, i32* %3, align 4
  ret i32 %46
}

declare dso_local i32 @printf(i8*, ...) #1

; Function Attrs: nounwind readnone
declare dso_local i32 @abs(i32) #2


!llvm.module.flags = !{!0}
!llvm.ident = !{!1}

!0 = !{i32 1, !"wchar_size", i32 4}
!1 = !{!"clang version 10.0.0-4ubuntu1 "}
